target datalayout = "e-m:e-p270:32:32-p271:32:32-p272:64:64-i64:64-i128:128-f80:128-n8:16:32:64-S128"
target triple = "x86_64-pc-linux-gnu"

%struct.llhttp__internal_s = type { i32, ptr, ptr, i32, ptr, ptr, ptr, ptr, i64, i8, i8, i8, i8, i8, i16, i8, i8, i16, i16, i8, ptr }
%struct.llhttp_settings_s = type { ptr, ptr, ptr, ptr, ptr, ptr, ptr, ptr, ptr, ptr, ptr, ptr, ptr, ptr, ptr, ptr, ptr, ptr, ptr, ptr, ptr, ptr, ptr }

@.str.189 = private unnamed_addr constant [39 x i8] c"Span callback error in on_header_value\00", align 1

; Function Attrs: nounwind uwtable
define void @llhttp_set_error_reason(ptr noundef %0, ptr noundef %1) #0 {
  %3 = alloca ptr, align 8
  %4 = alloca ptr, align 8
  store ptr %0, ptr %3, align 8, !tbaa !3
  store ptr %1, ptr %4, align 8, !tbaa !27
  %5 = load ptr, ptr %4, align 8, !tbaa !27
  %6 = load ptr, ptr %3, align 8, !tbaa !3
  %7 = getelementptr inbounds nuw %struct.llhttp__internal_s, ptr %6, i32 0, i32 4
  store ptr %5, ptr %7, align 8, !tbaa !33
  ret void
}

; Function Attrs: nounwind uwtable
define i32 @llhttp__on_header_value(ptr noundef %0, ptr noundef %1, ptr noundef %2) #0 {
  %4 = alloca ptr, align 8
  %5 = alloca ptr, align 8
  %6 = alloca ptr, align 8
  %7 = alloca i32, align 4
  %8 = alloca ptr, align 8
  %9 = alloca i32, align 4
  store ptr %0, ptr %4, align 8, !tbaa !3
  store ptr %1, ptr %5, align 8, !tbaa !27
  store ptr %2, ptr %6, align 8, !tbaa !27
  call void @llvm.lifetime.start.p0(i64 4, ptr %7) #6
  br label %10

10:                                               ; preds = %3
  call void @llvm.lifetime.start.p0(i64 8, ptr %8) #6
  %11 = load ptr, ptr %4, align 8, !tbaa !3
  %12 = getelementptr inbounds nuw %struct.llhttp__internal_s, ptr %11, i32 0, i32 20
  %13 = load ptr, ptr %12, align 8, !tbaa !17
  store ptr %13, ptr %8, align 8, !tbaa !10
  %14 = load ptr, ptr %8, align 8, !tbaa !10
  %15 = icmp eq ptr %14, null
  br i1 %15, label %21, label %16

16:                                               ; preds = %10
  %17 = load ptr, ptr %8, align 8, !tbaa !10
  %18 = getelementptr inbounds nuw %struct.llhttp_settings_s, ptr %17, i32 0, i32 6
  %19 = load ptr, ptr %18, align 8, !tbaa !46
  %20 = icmp eq ptr %19, null
  br i1 %20, label %21, label %22

21:                                               ; preds = %16, %10
  store i32 0, ptr %7, align 4, !tbaa !8
  store i32 2, ptr %9, align 4
  br label %39

22:                                               ; preds = %16
  %23 = load ptr, ptr %8, align 8, !tbaa !10
  %24 = getelementptr inbounds nuw %struct.llhttp_settings_s, ptr %23, i32 0, i32 6
  %25 = load ptr, ptr %24, align 8, !tbaa !46
  %26 = load ptr, ptr %4, align 8, !tbaa !3
  %27 = load ptr, ptr %5, align 8, !tbaa !27
  %28 = load ptr, ptr %6, align 8, !tbaa !27
  %29 = load ptr, ptr %5, align 8, !tbaa !27
  %30 = ptrtoint ptr %28 to i64
  %31 = ptrtoint ptr %29 to i64
  %32 = sub i64 %30, %31
  %33 = call i32 %25(ptr noundef %26, ptr noundef %27, i64 noundef %32)
  store i32 %33, ptr %7, align 4, !tbaa !8
  %34 = load i32, ptr %7, align 4, !tbaa !8
  %35 = icmp eq i32 %34, -1
  br i1 %35, label %36, label %38

36:                                               ; preds = %22
  store i32 24, ptr %7, align 4, !tbaa !8
  %37 = load ptr, ptr %4, align 8, !tbaa !3
  call void @llhttp_set_error_reason(ptr noundef %37, ptr noundef @.str.189)
  br label %38

38:                                               ; preds = %36, %22
  store i32 0, ptr %9, align 4
  br label %39

39:                                               ; preds = %38, %21
  call void @llvm.lifetime.end.p0(i64 8, ptr %8) #6
  %40 = load i32, ptr %9, align 4
  switch i32 %40, label %45 [
    i32 0, label %41
    i32 2, label %43
  ]

41:                                               ; preds = %39
  br label %42

42:                                               ; preds = %41
  br label %43

43:                                               ; preds = %42, %39
  %44 = load i32, ptr %7, align 4, !tbaa !8
  store i32 1, ptr %9, align 4
  call void @llvm.lifetime.end.p0(i64 4, ptr %7) #6
  ret i32 %44

45:                                               ; preds = %39
  unreachable
}